target datalayout = "e-m:e-p270:32:32-p271:32:32-p272:64:64-i64:64-i128:128-f80:128-n8:16:32:64-S128"
target triple = "x86_64-pc-linux-gnu"

@.str.36 = private unnamed_addr constant [18 x i8] c"frame_sync_byte_0\00", align 1
@.str.37 = private unnamed_addr constant [18 x i8] c"frame_sync_byte_1\00", align 1
@.str.38 = private unnamed_addr constant [18 x i8] c"frame_sync_byte_2\00", align 1

; Function Attrs: nounwind uwtable
define internal i32 @cbs_vp9_write_frame_sync_code(ptr noundef %0, ptr noundef %1, ptr noundef %2) #0 {
  %4 = alloca i32, align 4
  %5 = alloca ptr, align 8
  %6 = alloca ptr, align 8
  %7 = alloca ptr, align 8
  %8 = alloca i32, align 4
  %9 = alloca i32, align 4
  store ptr %0, ptr %5, align 8, !tbaa !4
  store ptr %1, ptr %6, align 8, !tbaa !45
  store ptr %2, ptr %7, align 8, !tbaa !79
  call void @llvm.lifetime.start.p0(i64 4, ptr %8) #8
  br label %10

10:                                               ; preds = %3
  br label %11

11:                                               ; preds = %10
  %12 = load ptr, ptr %5, align 8, !tbaa !4
  %13 = load ptr, ptr %6, align 8, !tbaa !45
  %14 = call i32 @ff_cbs_write_unsigned(ptr noundef %12, ptr noundef %13, i32 noundef 8, ptr noundef @.str.36, ptr noundef null, i32 noundef 73, i32 noundef 73, i32 noundef 73)
  store i32 %14, ptr %8, align 4, !tbaa !11
  %15 = load i32, ptr %8, align 4, !tbaa !11
  %16 = icmp slt i32 %15, 0
  br i1 %16, label %17, label %19

17:                                               ; preds = %11
  %18 = load i32, ptr %8, align 4, !tbaa !11
  store i32 %18, ptr %4, align 4
  store i32 1, ptr %9, align 4
  br label %52

19:                                               ; preds = %11
  br label %20

20:                                               ; preds = %19
  br label %21

21:                                               ; preds = %20
  br label %22

22:                                               ; preds = %21
  br label %23

23:                                               ; preds = %22
  br label %24

24:                                               ; preds = %23
  br label %25

25:                                               ; preds = %24
  %26 = load ptr, ptr %5, align 8, !tbaa !4
  %27 = load ptr, ptr %6, align 8, !tbaa !45
  %28 = call i32 @ff_cbs_write_unsigned(ptr noundef %26, ptr noundef %27, i32 noundef 8, ptr noundef @.str.37, ptr noundef null, i32 noundef 131, i32 noundef 131, i32 noundef 131)
  store i32 %28, ptr %8, align 4, !tbaa !11
  %29 = load i32, ptr %8, align 4, !tbaa !11
  %30 = icmp slt i32 %29, 0
  br i1 %30, label %31, label %33

31:                                               ; preds = %25
  %32 = load i32, ptr %8, align 4, !tbaa !11
  store i32 %32, ptr %4, align 4
  store i32 1, ptr %9, align 4
  br label %52

33:                                               ; preds = %25
  br label %34

34:                                               ; preds = %33
  br label %35

35:                                               ; preds = %34
  br label %36

36:                                               ; preds = %35
  br label %37

37:                                               ; preds = %36
  br label %38

38:                                               ; preds = %37
  br label %39

39:                                               ; preds = %38
  %40 = load ptr, ptr %5, align 8, !tbaa !4
  %41 = load ptr, ptr %6, align 8, !tbaa !45
  %42 = call i32 @ff_cbs_write_unsigned(ptr noundef %40, ptr noundef %41, i32 noundef 8, ptr noundef @.str.38, ptr noundef null, i32 noundef 66, i32 noundef 66, i32 noundef 66)
  store i32 %42, ptr %8, align 4, !tbaa !11
  %43 = load i32, ptr %8, align 4, !tbaa !11
  %44 = icmp slt i32 %43, 0
  br i1 %44, label %45, label %47

45:                                               ; preds = %39
  %46 = load i32, ptr %8, align 4, !tbaa !11
  store i32 %46, ptr %4, align 4
  store i32 1, ptr %9, align 4
  br label %52

47:                                               ; preds = %39
  br label %48

48:                                               ; preds = %47
  br label %49

49:                                               ; preds = %48
  br label %50

50:                                               ; preds = %49
  br label %51

51:                                               ; preds = %50
  store i32 0, ptr %4, align 4
  store i32 1, ptr %9, align 4
  br label %52

52:                                               ; preds = %51, %45, %31, %17
  call void @llvm.lifetime.end.p0(i64 4, ptr %8) #8
  %53 = load i32, ptr %4, align 4
  ret i32 %53
}