; Function Attrs: nounwind uwtable
define internal fastcc range(i32 -2147483648, 1) i32 @cbs_vp9_write_frame_sync_code(ptr noundef %0, ptr noundef %1) unnamed_addr #0 {
  %3 = tail call i32 @ff_cbs_write_unsigned(ptr noundef %0, ptr noundef %1, i32 noundef 8, ptr noundef nonnull @.str.36, ptr noundef null, i32 noundef 73, i32 noundef 73, i32 noundef 73) #8
  %4 = icmp slt i32 %3, 0
  br i1 %4, label %10, label %5

5:                                                ; preds = %2
  %6 = tail call i32 @ff_cbs_write_unsigned(ptr noundef %0, ptr noundef %1, i32 noundef 8, ptr noundef nonnull @.str.37, ptr noundef null, i32 noundef 131, i32 noundef 131, i32 noundef 131) #8
  %7 = icmp slt i32 %6, 0
  br i1 %7, label %10, label %8

8:                                                ; preds = %5
  %9 = tail call i32 @ff_cbs_write_unsigned(ptr noundef %0, ptr noundef %1, i32 noundef 8, ptr noundef nonnull @.str.38, ptr noundef null, i32 noundef 66, i32 noundef 66, i32 noundef 66) #8
  %. = tail call i32 @llvm.smin.i32(i32 %9, i32 0)
  br label %10

10:                                               ; preds = %8, %5, %2
  %.0 = phi i32 [ %3, %2 ], [ %6, %5 ], [ %., %8 ]
  ret i32 %.0
}